Certificate:
    Data:
        Version: 3 (0x2)
        Serial Number: 13 (0xd)
        Signature Algorithm: md5WithRSAEncryption
        Issuer: C=FR, ST=Midi-Pyrenees, L=Pic-du-Midi, O=Observateurs Associes, OU=Autorite Certification OA, CN=David Romeuf/emailAddress=David.Romeuf@laposte.net
        Validity
            Not Before: Oct 26 08:49:35 2006 GMT
            Not After : Oct 25 08:49:35 2011 GMT
        Subject: C=FR, ST=Midi-Pyrenees, O=Observateurs Associes, OU=SUPERVISEUR, CN=David Romeuf/emailAddress=David.Romeuf@laposte.net
        Subject Public Key Info:
            Public Key Algorithm: rsaEncryption
            RSA Public Key: (1024 bit)
                Modulus (1024 bit):
                    00:bf:4f:32:e2:53:14:a5:55:8f:d3:a3:6a:3a:b2:
                    e4:6d:74:84:f2:cf:09:38:18:6c:e9:bb:52:43:d7:
                    f8:8c:09:8c:3b:58:b9:82:03:45:cb:09:82:01:2a:
                    f7:c3:1a:11:e6:27:37:1a:1c:25:63:7d:1a:d0:d8:
                    96:c6:89:79:f8:6f:e4:05:d2:98:b6:b8:16:09:19:
                    d4:b7:d5:eb:2d:02:d4:93:55:96:5e:e0:8f:d4:06:
                    58:c1:68:77:dc:ac:42:45:ab:1f:0e:d9:e5:79:fd:
                    43:c3:c4:86:0c:e7:6a:d0:62:c7:66:d4:37:48:5e:
                    1b:0c:02:18:46:0e:e4:c4:b9
                Exponent: 65537 (0x10001)
        X509v3 extensions:
            X509v3 Basic Constraints: 
                CA:FALSE
            Netscape Comment: 
                OpenSSL Generated Certificate
            X509v3 Subject Key Identifier: 
                8D:F0:71:06:E3:01:30:DC:8E:5A:75:70:E5:83:AB:B1:21:E1:CA:3A
            X509v3 Authority Key Identifier: 
                keyid:C3:4E:3F:61:80:E1:D1:55:C3:1A:42:4F:AD:69:21:75:1F:19:CD:15
                DirName:/C=FR/ST=Midi-Pyrenees/L=Pic-du-Midi/O=Observateurs Associes/OU=Autorite Certification OA/CN=David Romeuf/emailAddress=David.Romeuf@laposte.net
                serial:C0:43:E4:48:60:60:C7:1C

    Signature Algorithm: md5WithRSAEncryption
        16:1a:6d:27:e1:24:67:a3:1b:c4:89:f0:c0:1f:df:12:19:ef:
        92:69:6d:d4:2c:b7:6b:69:bc:3a:b8:ec:16:0f:eb:b1:27:68:
        58:43:1c:7b:66:27:22:24:06:19:b7:e0:4a:ab:93:f8:a3:3e:
        b7:0a:5f:88:f1:90:7c:2d:41:ec:e2:52:f2:8f:e2:b7:57:9c:
        e0:d5:f5:c0:b6:c7:5b:60:aa:f4:bc:ee:07:45:91:9a:62:48:
        80:d6:32:83:cd:7f:04:43:d8:60:34:13:b4:94:94:e2:57:00:
        3e:10:0e:63:07:1f:9d:ec:16:67:80:4e:61:69:2e:95:f6:99:
        31:e8
-----BEGIN CERTIFICATE-----
MIIEJzCCA5CgAwIBAgIBDTANBgkqhkiG9w0BAQQFADCBvzELMAkGA1UEBhMCRlIx
FjAUBgNVBAgTDU1pZGktUHlyZW5lZXMxFDASBgNVBAcTC1BpYy1kdS1NaWRpMR4w
HAYDVQQKExVPYnNlcnZhdGV1cnMgQXNzb2NpZXMxIjAgBgNVBAsTGUF1dG9yaXRl
IENlcnRpZmljYXRpb24gT0ExFTATBgNVBAMTDERhdmlkIFJvbWV1ZjEnMCUGCSqG
SIb3DQEJARYYRGF2aWQuUm9tZXVmQGxhcG9zdGUubmV0MB4XDTA2MTAyNjA4NDkz
NVoXDTExMTAyNTA4NDkzNVowgZsxCzAJBgNVBAYTAkZSMRYwFAYDVQQIEw1NaWRp
LVB5cmVuZWVzMR4wHAYDVQQKExVPYnNlcnZhdGV1cnMgQXNzb2NpZXMxFDASBgNV
BAsTC1NVUEVSVklTRVVSMRUwEwYDVQQDEwxEYXZpZCBSb21ldWYxJzAlBgkqhkiG
9w0BCQEWGERhdmlkLlJvbWV1ZkBsYXBvc3RlLm5ldDCBnzANBgkqhkiG9w0BAQEF
AAOBjQAwgYkCgYEAv08y4lMUpVWP06NqOrLkbXSE8s8JOBhs6btSQ9f4jAmMO1i5
ggNFywmCASr3wxoR5ic3GhwlY30a0NiWxol5+G/kBdKYtrgWCRnUt9XrLQLUk1WW
XuCP1AZYwWh33KxCRasfDtnlef1Dw8SGDOdq0GLHZtQ3SF4bDAIYRg7kxLkCAwEA
AaOCAVMwggFPMAkGA1UdEwQCMAAwLAYJYIZIAYb4QgENBB8WHU9wZW5TU0wgR2Vu
ZXJhdGVkIENlcnRpZmljYXRlMB0GA1UdDgQWBBSN8HEG4wEw3I5adXDlg6uxIeHK
OjCB9AYDVR0jBIHsMIHpgBTDTj9hgOHRVcMaQk+taSF1HxnNFaGBxaSBwjCBvzEL
MAkGA1UEBhMCRlIxFjAUBgNVBAgTDU1pZGktUHlyZW5lZXMxFDASBgNVBAcTC1Bp
Yy1kdS1NaWRpMR4wHAYDVQQKExVPYnNlcnZhdGV1cnMgQXNzb2NpZXMxIjAgBgNV
BAsTGUF1dG9yaXRlIENlcnRpZmljYXRpb24gT0ExFTATBgNVBAMTDERhdmlkIFJv
bWV1ZjEnMCUGCSqGSIb3DQEJARYYRGF2aWQuUm9tZXVmQGxhcG9zdGUubmV0ggkA
wEPkSGBgxxwwDQYJKoZIhvcNAQEEBQADgYEAFhptJ+EkZ6MbxInwwB/fEhnvkmlt
1Cy3a2m8OrjsFg/rsSdoWEMce2YnIiQGGbfgSquT+KM+twpfiPGQfC1B7OJS8o/i
t1ec4NX1wLbHW2Cq9LzuB0WRmmJIgNYyg81/BEPYYDQTtJSU4lcAPhAOYwcfnewW
Z4BOYWkulfaZMeg=
-----END CERTIFICATE-----
